Microsoft (R) Macro Assembler Version 6.11		    10/10/19 00:00:06
proj3.asm						     Page 1 - 1


				;******************************************************************************************
				;*  Program Name: proj3.asm
				;*  Programmer:   Ryan Shupe
				;*  Class:        CSCI 2160-001
				;*  Lab:          Proj3
				;*  Date:         10/19/2019
				;*  Purpose:      
				;******************************************************************************************
					.486						;This tells assembler to generate 32-bit code
					.model flat					;This tells assembler that all addresses are real addresses
					.stack 100h					;EVERY program needs to have a stack allocated
				;******************************************************************************************
				;  List all necessary prototypes for methods to be called here
					ExitProcess PROTO NEAR32 stdcall, dwExitCode:DWORD  					;Executes "normal" termination
					intasc32 PROTO NEAR32 stdcall, lpStringToHold:dword, dval:dword			;Will convert any D-Word number into ACSII characters
					putstring  PROTO NEAR stdcall, lpStringToDisplay:dword  				;Will display ;characters until the NULL character is found
					getstring 	PROTO stdcall, lpStringToHoldInput:dword, maxNumChars:dword ;Get input from user and convert. 
					ascint32 PROTO NEAR32 stdcall, lpStringToConvert:dword  				;This converts ASCII characters to the dword value
					HeapDestroyHarrison PROTO Near32 stdcall								;Creates memory on the heap (of dSize words) and returns the address of the 
																							;start of the allocated heap memory
					HeapAllocHarrison PROTO Near32 stdcall, dSize:DWORD 					;Destroys the allocated heap storage created through heapAllocHarrison
				;******************************************************************************************
				;EXTERN externalProc:near
				;******************************************************************************************
				COMMENT %
				******************************************************************************
				*Name: DisplayString                                                         *
				*Purpose:                                                                    *
				*	The purpose of this macro is to display a set of strings to the console  *
				*                                                                            *
				*Date Created: 10/02/2019                                                    *
				*Date Modified: 10/02/2019                                                   *
				*                                                                            *
				*                                                                            *
				*@param String1:byte                                                         *
				*****************************************************************************%

				DisplayString MACRO String:REQ
					INVOKE putstring, ADDR String     				;;display The string passed in 
				ENDM

				COMMENT %
				******************************************************************************
				*Name: PullString                                                            *
				*Purpose:                                                                    *
				*	The purpose is to get information from the user and store into a variable*
				*                                                                            *
				*Date Created: 10/09/2019                                                    *
				*Date Modified: 10/09/2019                                                   *
				*                                                                            *
				*                                                                            *
				*@param String1:byte                                                         *
				*@param limit:byte                                                           *
				*****************************************************************************%

				PullString MACRO String:REQ, limit:REQ
						INVOKE getstring, ADDR String, limit		;Take the string input and store it into a variable, max amount of chars typed is sNumChars
						INVOKE ascint32, ADDR String				;Convert the ASCII value to its true decimal number
				ENDM

				COMMENT %
				******************************************************************************
				*Name: CvtoNum                                                               *
				*Purpose:                                                                    *
				*	converts a string to its real decimal number.                            *
				*                                                                            *
				*Date Created: 10/09/2019                                                    *
				*Date Modified: 10/09/2019                                                   *
				*                                                                            *
				*                                                                            *
				*@param String1:byte                                                         *
				*****************************************************************************%
				CvtoNum MACRO String:REQ
					INVOKE ascint32, ADDR String					;Convert the ASCII value to its true decimal number
				ENDM

				;******************************************************************************************
 00000000				.DATA
 00000000 0A 0D 09 4E 61		strProjInfo byte  10,13,9,
	   6D 65 3A 20 52
	   79 61 6E 20 53
	   68 75 70 65 0A
	   20 20 20 20 20
	   20 20 43 6C 61
	   73 73 3A 20 43
	   53 43 49 20 32
	   31 36 30 2D 30
	   30 31 0A 20 20
	   20 20 20 20 20
	   20 44 61 74 65
	   3A 20 31 30 2F
	   31 39 2F 32 30
	   31 39 0A 20 20
	   20 20 20 20 20
	   20 20 4C 61 62
	   3A 20 50 72 6F
	   6A 65 63 74 20
	   33 00
				        "Name: Ryan Shupe",10,
				"       Class: CSCI 2160-001",10,
				"        Date: 10/19/2019",10,
				"         Lab: Project 3",0
 00000061 0A 0A 45 6E 74		strRectangleLength byte 10,10, "Enter a whole number length for a rectangle [3,25]: ", 0
	   65 72 20 61 20
	   77 68 6F 6C 65
	   20 6E 75 6D 62
	   65 72 20 6C 65
	   6E 67 74 68 20
	   66 6F 72 20 61
	   20 72 65 63 74
	   61 6E 67 6C 65
	   20 5B 33 2C 32
	   35 5D 3A 20 00
 00000098 0A 0A 45 6E 74		strRectangleWidth byte 10,10, "Enter a whole number width for a rectangle [3,25]: ", 0
	   65 72 20 61 20
	   77 68 6F 6C 65
	   20 6E 75 6D 62
	   65 72 20 77 69
	   64 74 68 20 66
	   6F 72 20 61 20
	   72 65 63 74 61
	   6E 67 6C 65 20
	   5B 33 2C 32 35
	   5D 3A 20 00
 000000CE 0A 0A 45 6E 74		strTriangleHeight byte 10,10, "Enter a whole number height for a right triangle [4,25]: ", 0
	   65 72 20 61 20
	   77 68 6F 6C 65
	   20 6E 75 6D 62
	   65 72 20 68 65
	   69 67 68 74 20
	   66 6F 72 20 61
	   20 72 69 67 68
	   74 20 74 72 69
	   61 6E 67 6C 65
	   20 5B 34 2C 32
	   35 5D 3A 20 00
 0000010A 0A 0A 54 68 69		strSolidRectangleInfo byte 10,10, "This is a rectangle with input dimensions $recLength by $recWidth: "
	   73 20 69 73 20
	   61 20 72 65 63
	   74 61 6E 67 6C
	   65 20 77 69 74
	   68 20 69 6E 70
	   75 74 20 64 69
	   6D 65 6E 73 69
	   6F 6E 73 20 24
	   72 65 63 4C 65
	   6E 67 74 68 20
	   62 79 20 24 72
	   65 63 57 69 64
	   74 68 3A 20
 0000014F 0A 0A 54 68 69		strHallowRectangleInfo byte 10,10, "This is the same rectangle hollowed out: "
	   73 20 69 73 20
	   74 68 65 20 73
	   61 6D 65 20 72
	   65 63 74 61 6E
	   67 6C 65 20 68
	   6F 6C 6C 6F 77
	   65 64 20 6F 75
	   74 3A 20
 0000017A 0A 0D 00			crlf byte  10,13,0																		;Null-terminated string to skip to new line
 0000017D 00				recLength byte ?
 0000017E 00				recWidth byte ?
 0000017F 00				triHeight byte ?
					
					
				;******************************************************************************************
 00000000				.CODE
					
 00000000			_start:
 00000000  B8 00000000			MOV EAX, 0										;Statement to help in debugging
					
 00000005 00000005		main PROC

					DisplayString strProjInfo						;calls the display string macro as passes in the project information.
					
 0000000F			getRectangleLength:	
					DisplayString strRectangleLength				;calls the display string macro as passes in the length string.
					PullString recLength, 2							;get the user specified string and store into a variable, also in EAX
					CvtoNum recLength								;convert the value to its true decimal number so we can actually use it.
					
 00000039  83 F8 00			CMP EAX, 0										;Compare EAX to 0 to see if the user typed null character
 0000003C  74 D1			JE getRectangleLength							;If it is null then jump to getRectangleLength
 0000003E  83 F8 19			CMP EAX, 25										;Compare EAX to 25 to see if the user typed a number greater than 25.
 00000041  7F CC			JG getRectangleLength							;If greater than, jump to getRectangleLength
 00000043  83 F8 03			CMP EAX, 3										;Compare EAX to 3 to see if it is less than 3	
 00000046  7C C7			JL getRectangleLength							;If so, jump to getRectangleLength 
					
					
 00000048			getRectangleWidth:	
					DisplayString strRectangleWidth					;calls the display string macro as passes in the length string.
					PullString recWidth, 2							;get the user specified string and store into a variable, also in EAX
					CvtoNum recWidth								;convert the value to its true decimal number so we can actually use it.
					
 00000072  83 F8 00			CMP EAX, 0										;Compare EAX to 0 to see if the user typed null character
 00000075  74 D1			JE getRectangleWidth							;If it is null then jump to getRectangleWidth
 00000077  83 F8 19			CMP EAX, 25										;Compare EAX to 25 to see if the user typed a number greater than 25.
 0000007A  7F CC			JG getRectangleWidth							;If greater than, jump to getRectangleWidth
 0000007C  83 F8 03			CMP EAX, 3										;Compare EAX to 3 to see if it is less than 3	
 0000007F  7C C7			JL getRectangleWidth							;If so, jump to getRectangleWidth 
 00000081  EB 00			JMP displayRectangle
					
					
 00000083			displayRectangle:	
					DisplayString strSolidRectangleInfo				;calls the display string macro as passes in the specified string.
					DisplayString crlf								;calls the display string macro as passes in the specified string.
					DisplayString strHallowRectangleInfo			;calls the display string macro as passes in the specified string.
 000000A1  EB 00			JMP getTriangleHeight
					
					
 000000A3			getTriangleHeight:	
					DisplayString strTriangleHeight					;calls the display string macro as passes in the length string.
					PullString triHeight, 2							;get the user specified string and store into a variable, also in EAX
					CvtoNum triHeight								;convert the value to its true decimal number so we can actually use it.
					
 000000CD  83 F8 00			CMP EAX, 0										;Compare EAX to 0 to see if the user typed null character
 000000D0  74 D1			JE getTriangleHeight							;If it is null then jump to getRectangleWidth
 000000D2  83 F8 19			CMP EAX, 25										;Compare EAX to 25 to see if the user typed a number greater than 25.
 000000D5  7F CC			JG getTriangleHeight							;If greater than, jump to getRectangleWidth
 000000D7  83 F8 04			CMP EAX, 4										;Compare EAX to 4 to see if it is less than 4	
 000000DA  7C C7			JL getTriangleHeight							;If so, jump to getRectangleWidth 
					
 000000DC  B8 00000000			MOV EAX, 0										;Statement to help in debugging

				;************************************* the instructions below calls for "normal termination"	
 000000E1			finished:
					INVOKE ExitProcess,0						 
					PUBLIC _start
					
 000000E8			main ENDP
					END												;Signals assembler that there are no instructions after this statement
Microsoft (R) Macro Assembler Version 6.11		    10/10/19 00:00:06
proj3.asm						     Symbols 2 - 1




Macros:

                N a m e                 Type

CvtoNum  . . . . . . . . . . . .	Proc
DisplayString  . . . . . . . . .	Proc
PullString . . . . . . . . . . .	Proc


Segments and Groups:

                N a m e                 Size     Length   Align   Combine Class

FLAT . . . . . . . . . . . . . .	GROUP
STACK  . . . . . . . . . . . . .	32 Bit	 00000100 DWord	  Stack	  'STACK'	 
_DATA  . . . . . . . . . . . . .	32 Bit	 00000180 DWord	  Public  'DATA'	
_TEXT  . . . . . . . . . . . . .	32 Bit	 000000E8 DWord	  Public  'CODE'	


Procedures,  parameters and locals:

                N a m e                 Type     Value    Attr

$$$$$$00001  . . . . . . . . . .	P Near	 00000000 _TEXT	Length= 00000005 Private
ExitProcess  . . . . . . . . . .	P Near	 00000000 FLAT	Length= 00000000 External STDCALL
HeapAllocHarrison  . . . . . . .	P Near	 00000000 FLAT	Length= 00000000 External STDCALL
HeapDestroyHarrison  . . . . . .	P Near	 00000000 FLAT	Length= 00000000 External STDCALL
ascint32 . . . . . . . . . . . .	P Near	 00000000 FLAT	Length= 00000000 External STDCALL
getstring  . . . . . . . . . . .	P Near	 00000000 FLAT	Length= 00000000 External STDCALL
intasc32 . . . . . . . . . . . .	P Near	 00000000 FLAT	Length= 00000000 External STDCALL
main . . . . . . . . . . . . . .	P Near	 00000005 _TEXT	Length= 000000E3 Public
  getRectangleLength . . . . . .	L Near	 0000000F _TEXT	
  getRectangleWidth  . . . . . .	L Near	 00000048 _TEXT	
  displayRectangle . . . . . . .	L Near	 00000083 _TEXT	
  getTriangleHeight  . . . . . .	L Near	 000000A3 _TEXT	
  finished . . . . . . . . . . .	L Near	 000000E1 _TEXT	
putstring  . . . . . . . . . . .	P Near	 00000000 FLAT	Length= 00000000 External STDCALL


Symbols:

                N a m e                 Type     Value    Attr

@CodeSize  . . . . . . . . . . .	Number	 00000000h   
@DataSize  . . . . . . . . . . .	Number	 00000000h   
@Interface . . . . . . . . . . .	Number	 00000000h   
@Model . . . . . . . . . . . . .	Number	 00000007h   
@code  . . . . . . . . . . . . .	Text   	 _TEXT
@data  . . . . . . . . . . . . .	Text   	 FLAT
@fardata?  . . . . . . . . . . .	Text   	 FLAT
@fardata . . . . . . . . . . . .	Text   	 FLAT
@stack . . . . . . . . . . . . .	Text   	 FLAT
_start . . . . . . . . . . . . .	L Near	 00000000 _TEXT	Public
crlf . . . . . . . . . . . . . .	Byte	 0000017A _DATA	
recLength  . . . . . . . . . . .	Byte	 0000017D _DATA	
recWidth . . . . . . . . . . . .	Byte	 0000017E _DATA	
strHallowRectangleInfo . . . . .	Byte	 0000014F _DATA	
strProjInfo  . . . . . . . . . .	Byte	 00000000 _DATA	
strRectangleLength . . . . . . .	Byte	 00000061 _DATA	
strRectangleWidth  . . . . . . .	Byte	 00000098 _DATA	
strSolidRectangleInfo  . . . . .	Byte	 0000010A _DATA	
strTriangleHeight  . . . . . . .	Byte	 000000CE _DATA	
triHeight  . . . . . . . . . . .	Byte	 0000017F _DATA	

	   0 Warnings
	   0 Errors
